; Function Attrs: nofree norecurse nosync nounwind memory(readwrite, inaccessiblemem: none) uwtable
define internal fastcc range(i32 -11, 1) i32 @fix_unset_addr_list(ptr noundef nonnull readonly captures(none) %0, ptr noundef readonly captures(none) %1) unnamed_addr #11 {
  %3 = load i32, ptr %0, align 8, !tbaa !107
  %4 = icmp sgt i32 %3, 0
  br i1 %4, label %.lr.ph, label %._crit_edge

.lr.ph:                                           ; preds = %2
  %5 = getelementptr inbounds nuw i8, ptr %0, i64 8
  %6 = load ptr, ptr %5, align 8, !tbaa !87
  br label %7

7:                                                ; preds = %.lr.ph, %24
  %8 = phi i32 [ %3, %.lr.ph ], [ %25, %24 ]
  %indvars.iv = phi i64 [ 0, %.lr.ph ], [ %indvars.iv.next, %24 ]
  %9 = getelementptr inbounds nuw %struct.UnsetAddr, ptr %6, i64 %indvars.iv
  %10 = getelementptr inbounds nuw i8, ptr %9, i64 8
  %11 = load ptr, ptr %10, align 8, !tbaa !137
  %12 = getelementptr inbounds nuw i8, ptr %11, i64 4
  %13 = load i32, ptr %12, align 4, !tbaa !20
  %14 = and i32 %13, 256
  %.not = icmp eq i32 %14, 0
  br i1 %.not, label %15, label %17

15:                                               ; preds = %7
  %16 = and i32 %13, 128
  %.not17 = icmp eq i32 %16, 0
  br i1 %.not17, label %24, label %._crit_edge

17:                                               ; preds = %7
  %18 = getelementptr inbounds nuw i8, ptr %11, i64 36
  %19 = load i32, ptr %18, align 4, !tbaa !20
  %20 = load i32, ptr %9, align 8, !tbaa !135
  %21 = load ptr, ptr %1, align 8, !tbaa !17
  %22 = sext i32 %20 to i64
  %23 = getelementptr inbounds i8, ptr %21, i64 %22
  store i32 %19, ptr %23, align 4, !tbaa !4
  %.pre = load i32, ptr %0, align 8, !tbaa !107
  br label %24

24:                                               ; preds = %15, %17
  %25 = phi i32 [ %8, %15 ], [ %.pre, %17 ]
  %indvars.iv.next = add nuw nsw i64 %indvars.iv, 1
  %26 = sext i32 %25 to i64
  %27 = icmp slt i64 %indvars.iv.next, %26
  br i1 %27, label %7, label %._crit_edge, !llvm.loop !164

._crit_edge:                                      ; preds = %15, %24, %2
  %.0 = phi i32 [ 0, %2 ], [ 0, %24 ], [ -11, %15 ]
  ret i32 %.0
}